target datalayout = "e-m:e-p270:32:32-p271:32:32-p272:64:64-i64:64-i128:128-f80:128-n8:16:32:64-S128"
target triple = "x86_64-pc-linux-gnu"

%struct.AVChannelLayout = type { i32, i32, %union.anon.1, ptr }
%union.anon.1 = type { i64 }
%struct.AVRational = type { i32, i32 }
%struct.AVFrame = type { [8 x ptr], [8 x i32], ptr, i32, i32, i32, i32, i32, %struct.AVRational, i64, i64, %struct.AVRational, i32, ptr, i32, i32, [8 x ptr], ptr, i32, ptr, i32, i32, i32, i32, i32, i32, i32, i64, ptr, i32, ptr, ptr, i64, i64, i64, i64, ptr, %struct.AVChannelLayout, i64 }

@avpriv_cga_font = external constant [2048 x i8], align 16

; Function Attrs: nounwind uwtable
define internal void @idraw_htext16(ptr noundef %0, i32 noundef %1, i32 noundef %2, i32 noundef %3, float noundef %4, float noundef %5, ptr noundef %6, ptr noundef %7) #1 {
  %9 = alloca ptr, align 8
  %10 = alloca i32, align 4
  %11 = alloca i32, align 4
  %12 = alloca i32, align 4
  %13 = alloca float, align 4
  %14 = alloca float, align 4
  %15 = alloca ptr, align 8
  %16 = alloca ptr, align 8
  %17 = alloca ptr, align 8
  %18 = alloca i32, align 4
  %19 = alloca i32, align 4
  %20 = alloca i32, align 4
  %21 = alloca i32, align 4
  %22 = alloca i32, align 4
  %23 = alloca i32, align 4
  %24 = alloca ptr, align 8
  store ptr %0, ptr %9, align 8, !tbaa !61
  store i32 %1, ptr %10, align 4, !tbaa !47
  store i32 %2, ptr %11, align 4, !tbaa !47
  store i32 %3, ptr %12, align 4, !tbaa !47
  store float %4, ptr %13, align 4, !tbaa !69
  store float %5, ptr %14, align 4, !tbaa !69
  store ptr %6, ptr %15, align 8, !tbaa !77
  store ptr %7, ptr %16, align 8, !tbaa !77
  call void @llvm.lifetime.start.p0(i64 8, ptr %17) #10
  call void @llvm.lifetime.start.p0(i64 4, ptr %18) #10
  call void @llvm.lifetime.start.p0(i64 4, ptr %19) #10
  call void @llvm.lifetime.start.p0(i64 4, ptr %20) #10
  store ptr @avpriv_cga_font, ptr %17, align 8, !tbaa !77
  store i32 8, ptr %18, align 4, !tbaa !47
  store i32 0, ptr %20, align 4, !tbaa !47
  br label %25

25:                                               ; preds = %150, %8
  %26 = load i32, ptr %20, align 4, !tbaa !47
  %27 = icmp slt i32 %26, 4
  br i1 %27, label %28, label %36

28:                                               ; preds = %25
  %29 = load ptr, ptr %9, align 8, !tbaa !61
  %30 = getelementptr inbounds nuw %struct.AVFrame, ptr %29, i32 0, i32 0
  %31 = load i32, ptr %20, align 4, !tbaa !47
  %32 = sext i32 %31 to i64
  %33 = getelementptr inbounds [8 x ptr], ptr %30, i64 0, i64 %32
  %34 = load ptr, ptr %33, align 8, !tbaa !77
  %35 = icmp ne ptr %34, null
  br label %36

36:                                               ; preds = %28, %25
  %37 = phi i1 [ false, %25 ], [ %35, %28 ]
  br i1 %37, label %38, label %153

38:                                               ; preds = %36
  store i32 0, ptr %19, align 4, !tbaa !47
  br label %39

39:                                               ; preds = %146, %38
  %40 = load ptr, ptr %15, align 8, !tbaa !77
  %41 = load i32, ptr %19, align 4, !tbaa !47
  %42 = sext i32 %41 to i64
  %43 = getelementptr inbounds i8, ptr %40, i64 %42
  %44 = load i8, ptr %43, align 1, !tbaa !68
  %45 = icmp ne i8 %44, 0
  br i1 %45, label %46, label %149

46:                                               ; preds = %39
  call void @llvm.lifetime.start.p0(i64 4, ptr %21) #10
  call void @llvm.lifetime.start.p0(i64 4, ptr %22) #10
  call void @llvm.lifetime.start.p0(i64 4, ptr %23) #10
  %47 = load ptr, ptr %16, align 8, !tbaa !77
  %48 = load i32, ptr %20, align 4, !tbaa !47
  %49 = sext i32 %48 to i64
  %50 = getelementptr inbounds i8, ptr %47, i64 %49
  %51 = load i8, ptr %50, align 1, !tbaa !68
  %52 = zext i8 %51 to i32
  %53 = load i32, ptr %12, align 4, !tbaa !47
  %54 = mul nsw i32 %52, %53
  store i32 %54, ptr %23, align 4, !tbaa !47
  call void @llvm.lifetime.start.p0(i64 8, ptr %24) #10
  %55 = load ptr, ptr %9, align 8, !tbaa !61
  %56 = getelementptr inbounds nuw %struct.AVFrame, ptr %55, i32 0, i32 0
  %57 = load i32, ptr %20, align 4, !tbaa !47
  %58 = sext i32 %57 to i64
  %59 = getelementptr inbounds [8 x ptr], ptr %56, i64 0, i64 %58
  %60 = load ptr, ptr %59, align 8, !tbaa !77
  %61 = load i32, ptr %11, align 4, !tbaa !47
  %62 = load ptr, ptr %9, align 8, !tbaa !61
  %63 = getelementptr inbounds nuw %struct.AVFrame, ptr %62, i32 0, i32 1
  %64 = load i32, ptr %20, align 4, !tbaa !47
  %65 = sext i32 %64 to i64
  %66 = getelementptr inbounds [8 x i32], ptr %63, i64 0, i64 %65
  %67 = load i32, ptr %66, align 4, !tbaa !47
  %68 = mul nsw i32 %61, %67
  %69 = sext i32 %68 to i64
  %70 = getelementptr inbounds i8, ptr %60, i64 %69
  %71 = load i32, ptr %10, align 4, !tbaa !47
  %72 = load i32, ptr %19, align 4, !tbaa !47
  %73 = mul nsw i32 %72, 8
  %74 = add nsw i32 %71, %73
  %75 = sext i32 %74 to i64
  %76 = getelementptr inbounds i16, ptr %70, i64 %75
  store ptr %76, ptr %24, align 8, !tbaa !79
  store i32 0, ptr %21, align 4, !tbaa !47
  br label %77

77:                                               ; preds = %142, %46
  %78 = load i32, ptr %21, align 4, !tbaa !47
  %79 = load i32, ptr %18, align 4, !tbaa !47
  %80 = icmp slt i32 %78, %79
  br i1 %80, label %81, label %145

81:                                               ; preds = %77
  store i32 128, ptr %22, align 4, !tbaa !47
  br label %82

82:                                               ; preds = %127, %81
  %83 = load i32, ptr %22, align 4, !tbaa !47
  %84 = icmp ne i32 %83, 0
  br i1 %84, label %85, label %130

85:                                               ; preds = %82
  %86 = load ptr, ptr %17, align 8, !tbaa !77
  %87 = load ptr, ptr %15, align 8, !tbaa !77
  %88 = load i32, ptr %19, align 4, !tbaa !47
  %89 = sext i32 %88 to i64
  %90 = getelementptr inbounds i8, ptr %87, i64 %89
  %91 = load i8, ptr %90, align 1, !tbaa !68
  %92 = sext i8 %91 to i32
  %93 = load i32, ptr %18, align 4, !tbaa !47
  %94 = mul nsw i32 %92, %93
  %95 = load i32, ptr %21, align 4, !tbaa !47
  %96 = add nsw i32 %94, %95
  %97 = sext i32 %96 to i64
  %98 = getelementptr inbounds i8, ptr %86, i64 %97
  %99 = load i8, ptr %98, align 1, !tbaa !68
  %100 = zext i8 %99 to i32
  %101 = load i32, ptr %22, align 4, !tbaa !47
  %102 = and i32 %100, %101
  %103 = icmp ne i32 %102, 0
  br i1 %103, label %104, label %124

104:                                              ; preds = %85
  %105 = load ptr, ptr %24, align 8, !tbaa !79
  %106 = getelementptr inbounds i16, ptr %105, i64 0
  %107 = load i16, ptr %106, align 2, !tbaa !81
  %108 = zext i16 %107 to i32
  %109 = sitofp i32 %108 to float
  %110 = load float, ptr %14, align 4, !tbaa !69
  %111 = load i32, ptr %23, align 4, !tbaa !47
  %112 = load ptr, ptr %24, align 8, !tbaa !79
  %113 = getelementptr inbounds i16, ptr %112, i64 0
  %114 = load i16, ptr %113, align 2, !tbaa !81
  %115 = zext i16 %114 to i32
  %116 = sub nsw i32 %111, %115
  %117 = sitofp i32 %116 to float
  %118 = load float, ptr %13, align 4, !tbaa !69
  %119 = fmul nsz float %117, %118
  %120 = call nsz float @llvm.fmuladd.f32(float %109, float %110, float %119)
  %121 = fptoui float %120 to i16
  %122 = load ptr, ptr %24, align 8, !tbaa !79
  %123 = getelementptr inbounds i16, ptr %122, i64 0
  store i16 %121, ptr %123, align 2, !tbaa !81
  br label %124

124:                                              ; preds = %104, %85
  %125 = load ptr, ptr %24, align 8, !tbaa !79
  %126 = getelementptr inbounds nuw i16, ptr %125, i32 1
  store ptr %126, ptr %24, align 8, !tbaa !79
  br label %127

127:                                              ; preds = %124
  %128 = load i32, ptr %22, align 4, !tbaa !47
  %129 = ashr i32 %128, 1
  store i32 %129, ptr %22, align 4, !tbaa !47
  br label %82, !llvm.loop !236

130:                                              ; preds = %82
  %131 = load ptr, ptr %9, align 8, !tbaa !61
  %132 = getelementptr inbounds nuw %struct.AVFrame, ptr %131, i32 0, i32 1
  %133 = load i32, ptr %20, align 4, !tbaa !47
  %134 = sext i32 %133 to i64
  %135 = getelementptr inbounds [8 x i32], ptr %132, i64 0, i64 %134
  %136 = load i32, ptr %135, align 4, !tbaa !47
  %137 = sdiv i32 %136, 2
  %138 = sub nsw i32 %137, 8
  %139 = load ptr, ptr %24, align 8, !tbaa !79
  %140 = sext i32 %138 to i64
  %141 = getelementptr inbounds i16, ptr %139, i64 %140
  store ptr %141, ptr %24, align 8, !tbaa !79
  br label %142

142:                                              ; preds = %130
  %143 = load i32, ptr %21, align 4, !tbaa !47
  %144 = add nsw i32 %143, 1
  store i32 %144, ptr %21, align 4, !tbaa !47
  br label %77, !llvm.loop !237

145:                                              ; preds = %77
  call void @llvm.lifetime.end.p0(i64 8, ptr %24) #10
  call void @llvm.lifetime.end.p0(i64 4, ptr %23) #10
  call void @llvm.lifetime.end.p0(i64 4, ptr %22) #10
  call void @llvm.lifetime.end.p0(i64 4, ptr %21) #10
  br label %146

146:                                              ; preds = %145
  %147 = load i32, ptr %19, align 4, !tbaa !47
  %148 = add nsw i32 %147, 1
  store i32 %148, ptr %19, align 4, !tbaa !47
  br label %39, !llvm.loop !238

149:                                              ; preds = %39
  br label %150

150:                                              ; preds = %149
  %151 = load i32, ptr %20, align 4, !tbaa !47
  %152 = add nsw i32 %151, 1
  store i32 %152, ptr %20, align 4, !tbaa !47
  br label %25, !llvm.loop !239

153:                                              ; preds = %36
  call void @llvm.lifetime.end.p0(i64 4, ptr %20) #10
  call void @llvm.lifetime.end.p0(i64 4, ptr %19) #10
  call void @llvm.lifetime.end.p0(i64 4, ptr %18) #10
  call void @llvm.lifetime.end.p0(i64 8, ptr %17) #10
  ret void
}