; Function Attrs: nofree norecurse nosync nounwind memory(readwrite, inaccessiblemem: none) uwtable
define internal void @idraw_htext16(ptr noundef readonly captures(none) %0, i32 noundef %1, i32 noundef %2, i32 noundef %3, float noundef %4, float noundef %5, ptr noundef readonly captures(none) %6, ptr noundef readonly captures(none) %7) #6 {
  %9 = getelementptr inbounds nuw i8, ptr %0, i64 64
  %10 = sext i32 %1 to i64
  br label %11

11:                                               ; preds = %8, %._crit_edge
  %indvars.iv53 = phi i64 [ 0, %8 ], [ %indvars.iv.next54, %._crit_edge ]
  %12 = getelementptr inbounds nuw [8 x ptr], ptr %0, i64 0, i64 %indvars.iv53
  %13 = load ptr, ptr %12, align 8, !tbaa !71
  %.not = icmp eq ptr %13, null
  br i1 %.not, label %.critedge, label %.preheader44

.preheader44:                                     ; preds = %11
  %14 = load i8, ptr %6, align 1, !tbaa !62
  %.not4149 = icmp eq i8 %14, 0
  br i1 %.not4149, label %._crit_edge, label %.lr.ph

.lr.ph:                                           ; preds = %.preheader44
  %15 = getelementptr inbounds nuw i8, ptr %7, i64 %indvars.iv53
  %16 = getelementptr inbounds nuw [8 x i32], ptr %9, i64 0, i64 %indvars.iv53
  %17 = load i32, ptr %16, align 4, !tbaa !44
  %18 = mul nsw i32 %17, %2
  %19 = sext i32 %18 to i64
  %20 = getelementptr inbounds i8, ptr %13, i64 %19
  %21 = sdiv i32 %17, 2
  %22 = sext i32 %21 to i64
  %invariant.gep = getelementptr i16, ptr %20, i64 %10
  br label %23

23:                                               ; preds = %.lr.ph, %54
  %indvars.iv = phi i64 [ 0, %.lr.ph ], [ %indvars.iv.next, %54 ]
  %24 = getelementptr inbounds nuw i8, ptr %6, i64 %indvars.iv
  %25 = load i8, ptr %15, align 1, !tbaa !62
  %26 = zext i8 %25 to i32
  %27 = mul nsw i32 %3, %26
  %.idx = shl i64 %indvars.iv, 4
  %gep = getelementptr i8, ptr %invariant.gep, i64 %.idx
  br label %.preheader

.preheader:                                       ; preds = %23, %50
  %.048 = phi ptr [ %gep, %23 ], [ %52, %50 ]
  %.03947 = phi i32 [ 0, %23 ], [ %53, %50 ]
  br label %28

28:                                               ; preds = %.preheader, %47
  %.146 = phi ptr [ %.048, %.preheader ], [ %48, %47 ]
  %.03845 = phi i32 [ 128, %.preheader ], [ %49, %47 ]
  %29 = load i8, ptr %24, align 1, !tbaa !62
  %30 = sext i8 %29 to i32
  %31 = shl nsw i32 %30, 3
  %32 = add nuw nsw i32 %31, %.03947
  %33 = sext i32 %32 to i64
  %34 = getelementptr inbounds i8, ptr @avpriv_cga_font, i64 %33
  %35 = load i8, ptr %34, align 1, !tbaa !62
  %36 = zext i8 %35 to i32
  %37 = and i32 %.03845, %36
  %.not43 = icmp eq i32 %37, 0
  br i1 %.not43, label %47, label %38

38:                                               ; preds = %28
  %39 = load i16, ptr %.146, align 2, !tbaa !72
  %40 = zext i16 %39 to i32
  %41 = uitofp i16 %39 to float
  %42 = sub nsw i32 %27, %40
  %43 = sitofp i32 %42 to float
  %44 = fmul nsz float %4, %43
  %45 = tail call nsz float @llvm.fmuladd.f32(float %41, float %5, float %44)
  %46 = fptoui float %45 to i16
  store i16 %46, ptr %.146, align 2, !tbaa !72
  br label %47

47:                                               ; preds = %38, %28
  %48 = getelementptr inbounds nuw i8, ptr %.146, i64 2
  %49 = lshr i32 %.03845, 1
  %.not42 = icmp samesign ult i32 %.03845, 2
  br i1 %.not42, label %50, label %28, !llvm.loop !275

50:                                               ; preds = %47
  %51 = getelementptr i16, ptr %48, i64 %22
  %52 = getelementptr i8, ptr %51, i64 -16
  %53 = add nuw nsw i32 %.03947, 1
  %exitcond.not = icmp eq i32 %53, 8
  br i1 %exitcond.not, label %54, label %.preheader, !llvm.loop !276

54:                                               ; preds = %50
  %indvars.iv.next = add nuw nsw i64 %indvars.iv, 1
  %55 = getelementptr inbounds nuw i8, ptr %6, i64 %indvars.iv.next
  %56 = load i8, ptr %55, align 1, !tbaa !62
  %.not41 = icmp eq i8 %56, 0
  br i1 %.not41, label %._crit_edge, label %23, !llvm.loop !277

._crit_edge:                                      ; preds = %54, %.preheader44
  %indvars.iv.next54 = add nuw nsw i64 %indvars.iv53, 1
  %exitcond56.not = icmp eq i64 %indvars.iv.next54, 4
  br i1 %exitcond56.not, label %.critedge, label %11, !llvm.loop !278

.critedge:                                        ; preds = %._crit_edge, %11
  ret void
}